target datalayout = "e-m:e-p270:32:32-p271:32:32-p272:64:64-i64:64-i128:128-f80:128-n8:16:32:64-S128"
target triple = "x86_64-pc-linux-gnu"

%"class.llvm::VersionTuple" = type { i64, i64 }
%"class.clang::LangOptionsBase" = type <{ i64, i64, i64, i64, i64, i64, i64, i64, i64, i64, i64, i64, i64, i64, i64, i64, i64, i64, i64, i64, i64, i64, i64, i64, i64, i16, [2 x i8] }>

; Function Attrs: mustprogress nounwind uwtable
define linkonce_odr hidden void @_ZN4llvm12VersionTupleC2Ejj(ptr noundef nonnull align 4 dereferenceable(16) %0, i32 noundef %1, i32 noundef %2) unnamed_addr #0 comdat align 2 {
  %4 = alloca ptr, align 8
  %5 = alloca i32, align 4
  %6 = alloca i32, align 4
  store ptr %0, ptr %4, align 8
  store i32 %1, ptr %5, align 4
  store i32 %2, ptr %6, align 4
  %7 = load ptr, ptr %4, align 8
  %8 = load i32, ptr %5, align 4
  %9 = zext i32 %8 to i64
  %10 = load i64, ptr %7, align 4
  %11 = and i64 %9, 4294967295
  %12 = and i64 %10, -4294967296
  %13 = or i64 %12, %11
  store i64 %13, ptr %7, align 4
  %14 = load i32, ptr %6, align 4
  %15 = zext i32 %14 to i64
  %16 = load i64, ptr %7, align 4
  %17 = and i64 %15, 2147483647
  %18 = shl i64 %17, 32
  %19 = and i64 %16, -9223372032559808513
  %20 = or i64 %19, %18
  store i64 %20, ptr %7, align 4
  %21 = load i64, ptr %7, align 4
  %22 = and i64 %21, 9223372036854775807
  %23 = or i64 %22, -9223372036854775808
  store i64 %23, ptr %7, align 4
  %24 = getelementptr inbounds nuw %"class.llvm::VersionTuple", ptr %7, i32 0, i32 1
  %25 = load i64, ptr %24, align 4
  %26 = and i64 %25, -2147483648
  %27 = or i64 %26, 0
  store i64 %27, ptr %24, align 4
  %28 = getelementptr inbounds nuw %"class.llvm::VersionTuple", ptr %7, i32 0, i32 1
  %29 = load i64, ptr %28, align 4
  %30 = and i64 %29, -2147483649
  %31 = or i64 %30, 0
  store i64 %31, ptr %28, align 4
  %32 = getelementptr inbounds nuw %"class.llvm::VersionTuple", ptr %7, i32 0, i32 1
  %33 = load i64, ptr %32, align 4
  %34 = and i64 %33, -9223372032559808513
  %35 = or i64 %34, 0
  store i64 %35, ptr %32, align 4
  %36 = getelementptr inbounds nuw %"class.llvm::VersionTuple", ptr %7, i32 0, i32 1
  %37 = load i64, ptr %36, align 4
  %38 = and i64 %37, 9223372036854775807
  %39 = or i64 %38, 0
  store i64 %39, ptr %36, align 4
  ret void
}

; Function Attrs: mustprogress nounwind uwtable
define linkonce_odr hidden void @_ZN4llvm12VersionTupleC2Ej(ptr noundef nonnull align 4 dereferenceable(16) %0, i32 noundef %1) unnamed_addr #0 comdat align 2 {
  %3 = alloca ptr, align 8
  %4 = alloca i32, align 4
  store ptr %0, ptr %3, align 8
  store i32 %1, ptr %4, align 4
  %5 = load ptr, ptr %3, align 8
  %6 = load i32, ptr %4, align 4
  %7 = zext i32 %6 to i64
  %8 = load i64, ptr %5, align 4
  %9 = and i64 %7, 4294967295
  %10 = and i64 %8, -4294967296
  %11 = or i64 %10, %9
  store i64 %11, ptr %5, align 4
  %12 = load i64, ptr %5, align 4
  %13 = and i64 %12, -9223372032559808513
  %14 = or i64 %13, 0
  store i64 %14, ptr %5, align 4
  %15 = load i64, ptr %5, align 4
  %16 = and i64 %15, 9223372036854775807
  %17 = or i64 %16, 0
  store i64 %17, ptr %5, align 4
  %18 = getelementptr inbounds nuw %"class.llvm::VersionTuple", ptr %5, i32 0, i32 1
  %19 = load i64, ptr %18, align 4
  %20 = and i64 %19, -2147483648
  %21 = or i64 %20, 0
  store i64 %21, ptr %18, align 4
  %22 = getelementptr inbounds nuw %"class.llvm::VersionTuple", ptr %5, i32 0, i32 1
  %23 = load i64, ptr %22, align 4
  %24 = and i64 %23, -2147483649
  %25 = or i64 %24, 0
  store i64 %25, ptr %22, align 4
  %26 = getelementptr inbounds nuw %"class.llvm::VersionTuple", ptr %5, i32 0, i32 1
  %27 = load i64, ptr %26, align 4
  %28 = and i64 %27, -9223372032559808513
  %29 = or i64 %28, 0
  store i64 %29, ptr %26, align 4
  %30 = getelementptr inbounds nuw %"class.llvm::VersionTuple", ptr %5, i32 0, i32 1
  %31 = load i64, ptr %30, align 4
  %32 = and i64 %31, 9223372036854775807
  %33 = or i64 %32, 0
  store i64 %33, ptr %30, align 4
  ret void
}

; Function Attrs: mustprogress nounwind uwtable
define dso_local { i64, i64 } @_ZNK5clang11LangOptions21getOpenCLVersionTupleEv(ptr noundef nonnull align 8 dereferenceable(841) %0) #0 align 2 {
  %2 = alloca %"class.llvm::VersionTuple", align 4
  %3 = alloca ptr, align 8
  %4 = alloca i32, align 4
  store ptr %0, ptr %3, align 8
  %5 = load ptr, ptr %3, align 8
  %6 = getelementptr inbounds nuw %"class.clang::LangOptionsBase", ptr %5, i32 0, i32 6
  %7 = load i64, ptr %6, align 8
  %8 = lshr i64 %7, 32
  %9 = and i64 %8, 1
  %10 = trunc i64 %9 to i32
  %11 = icmp ne i32 %10, 0
  br i1 %11, label %12, label %17

12:                                               ; preds = %1
  %13 = getelementptr inbounds nuw %"class.clang::LangOptionsBase", ptr %5, i32 0, i32 7
  %14 = load i64, ptr %13, align 8
  %15 = and i64 %14, 4294967295
  %16 = trunc i64 %15 to i32
  br label %22

17:                                               ; preds = %1
  %18 = getelementptr inbounds nuw %"class.clang::LangOptionsBase", ptr %5, i32 0, i32 6
  %19 = load i64, ptr %18, align 8
  %20 = and i64 %19, 4294967295
  %21 = trunc i64 %20 to i32
  br label %22

22:                                               ; preds = %17, %12
  %23 = phi i32 [ %16, %12 ], [ %21, %17 ]
  store i32 %23, ptr %4, align 4
  %24 = getelementptr inbounds nuw %"class.clang::LangOptionsBase", ptr %5, i32 0, i32 6
  %25 = load i64, ptr %24, align 8
  %26 = lshr i64 %25, 32
  %27 = and i64 %26, 1
  %28 = trunc i64 %27 to i32
  %29 = icmp ne i32 %28, 0
  br i1 %29, label %30, label %36

30:                                               ; preds = %22
  %31 = load i32, ptr %4, align 4
  %32 = icmp ne i32 %31, 100
  br i1 %32, label %33, label %36

33:                                               ; preds = %30
  %34 = load i32, ptr %4, align 4
  %35 = sdiv i32 %34, 100
  call void @_ZN4llvm12VersionTupleC2Ej(ptr noundef nonnull align 4 dereferenceable(16) %2, i32 noundef %35)
  br label %42

36:                                               ; preds = %30, %22
  %37 = load i32, ptr %4, align 4
  %38 = sdiv i32 %37, 100
  %39 = load i32, ptr %4, align 4
  %40 = srem i32 %39, 100
  %41 = sdiv i32 %40, 10
  call void @_ZN4llvm12VersionTupleC2Ejj(ptr noundef nonnull align 4 dereferenceable(16) %2, i32 noundef %38, i32 noundef %41)
  br label %42

42:                                               ; preds = %36, %33
  %43 = load { i64, i64 }, ptr %2, align 4
  ret { i64, i64 } %43
}