; Function Attrs: mustprogress nofree norecurse nosync nounwind willreturn memory(argmem: read) uwtable
define dso_local { i64, i64 } @_ZNK5clang11LangOptions21getOpenCLVersionTupleEv(ptr nocapture noundef nonnull readonly align 8 dereferenceable(841) %0) local_unnamed_addr #3 align 2 {
  %2 = getelementptr inbounds nuw i8, ptr %0, i64 48
  %3 = load i64, ptr %2, align 8
  %4 = and i64 %3, 4294967296
  %.not = icmp eq i64 %4, 0
  %5 = getelementptr inbounds nuw i8, ptr %0, i64 56
  %6 = load i64, ptr %5, align 8
  %.in = select i1 %.not, i64 %3, i64 %6
  %7 = trunc i64 %.in to i32
  %8 = icmp ne i64 %4, 0
  %9 = icmp ne i32 %7, 100
  %or.cond = select i1 %8, i1 %9, i1 false
  %10 = sdiv i32 %7, 100
  %11 = srem i32 %7, 100
  br i1 %or.cond, label %12, label %14

12:                                               ; preds = %1
  %13 = zext i32 %10 to i64
  br label %20

14:                                               ; preds = %1
  %.lhs.trunc = trunc nsw i32 %11 to i8
  %15 = sdiv i8 %.lhs.trunc, 10
  %.sext = sext i8 %15 to i64
  %16 = zext i32 %10 to i64
  %17 = shl nsw i64 %.sext, 32
  %18 = or disjoint i64 %17, %16
  %19 = or i64 %18, -9223372036854775808
  br label %20

20:                                               ; preds = %14, %12
  %.sroa.0.0 = phi i64 [ %13, %12 ], [ %19, %14 ]
  %.fca.0.insert = insertvalue { i64, i64 } poison, i64 %.sroa.0.0, 0
  %.fca.1.insert = insertvalue { i64, i64 } %.fca.0.insert, i64 0, 1
  ret { i64, i64 } %.fca.1.insert
}